(iDevice
Device
p0
(dp1
S'rssi2'
p2
I0
sS'addrType'
p3
S'public'
p4
sS'rssi1'
p5
I0
sS'rssi3'
p6
I0
sS'param'
p7
NsS'mac'
p8
S'a0:38:f8:ac:3d:e3'
p9
sS'advData'
p10
S'02 01 05 12 09 6f 75 72 69 5f 41 30 33 38 46 38 41 43 33 44 45 33 07 ff b2 02 03 22 5a 02'
p11
sS'timeout'
p12
I4
sS'advInterval'
p13
I2
sS'connectedData'
p14
Nsb.